; Function Attrs: mustprogress uwtable
define hidden noundef zeroext i1 @_ZN11realclosure7manager2eqERKNS_3numERK3mpz(ptr noundef nonnull align 8 dereferenceable(8) %0, ptr noundef nonnull readonly align 8 captures(none) dereferenceable(8) %1, ptr noundef nonnull align 8 dereferenceable(16) %2) local_unnamed_addr #5 align 2 personality ptr @__gxx_personality_v0 {
  %4 = alloca %"class.realclosure::save_interval_ctx", align 8
  %5 = alloca %class._scoped_numeral.8, align 8
  call void @llvm.lifetime.start.p0(i64 16, ptr nonnull %5) #24
  store ptr %0, ptr %5, align 8, !tbaa !138
  %6 = getelementptr inbounds nuw i8, ptr %5, i64 8
  store ptr null, ptr %6, align 8, !tbaa !84
  %7 = load ptr, ptr %0, align 8, !tbaa !11
  invoke void @_ZN11realclosure7manager3imp3setERNS_3numERK3mpz(ptr noundef nonnull align 8 dereferenceable(1497) %7, ptr noundef nonnull align 8 dereferenceable(8) %6, ptr noundef nonnull align 8 dereferenceable(16) %2)
          to label %_ZN11realclosure7manager3setERNS_3numERK3mpz.exit unwind label %27

_ZN11realclosure7manager3setERNS_3numERK3mpz.exit: ; preds = %3
  call void @llvm.lifetime.start.p0(i64 8, ptr nonnull %4) #24
  %8 = load ptr, ptr %0, align 8, !tbaa !11
  store ptr %8, ptr %4, align 8, !tbaa !91
  %9 = load ptr, ptr %1, align 8, !tbaa !84
  %10 = load ptr, ptr %6, align 8, !tbaa !84
  %11 = invoke noundef i32 @_ZN11realclosure7manager3imp7compareEPNS_5valueES3_(ptr noundef nonnull align 8 dereferenceable(1497) %8, ptr noundef %9, ptr noundef %10)
          to label %_ZN11realclosure7manager3imp7compareERKNS_3numES4_.exit.i.i unwind label %17

_ZN11realclosure7manager3imp7compareERKNS_3numES4_.exit.i.i: ; preds = %_ZN11realclosure7manager3setERNS_3numERK3mpz.exit
  %12 = getelementptr inbounds nuw i8, ptr %8, i64 1392
  invoke void @_ZN11realclosure7manager3imp23restore_saved_intervalsINS_5valueEEEvR10ptr_vectorIT_E(ptr noundef nonnull align 8 dereferenceable(1497) %8, ptr noundef nonnull align 8 dereferenceable(8) %12)
          to label %.noexc.i.i.i unwind label %14

.noexc.i.i.i:                                     ; preds = %_ZN11realclosure7manager3imp7compareERKNS_3numES4_.exit.i.i
  %13 = getelementptr inbounds nuw i8, ptr %8, i64 1400
  invoke void @_ZN11realclosure7manager3imp23restore_saved_intervalsINS_9extensionEEEvR10ptr_vectorIT_E(ptr noundef nonnull align 8 dereferenceable(1497) %8, ptr noundef nonnull align 8 dereferenceable(8) %13)
          to label %19 unwind label %14

14:                                               ; preds = %.noexc.i.i.i, %_ZN11realclosure7manager3imp7compareERKNS_3numES4_.exit.i.i
  %15 = landingpad { ptr, i32 }
          catch ptr null
  %16 = extractvalue { ptr, i32 } %15, 0
  call void @__clang_call_terminate(ptr %16) #25
  unreachable

17:                                               ; preds = %_ZN11realclosure7manager3setERNS_3numERK3mpz.exit
  %18 = landingpad { ptr, i32 }
          cleanup
  call void @_ZN11realclosure17save_interval_ctxD2Ev(ptr noundef nonnull align 8 dereferenceable(8) %4) #24
  call void @llvm.lifetime.end.p0(i64 8, ptr nonnull %4) #24
  br label %.body

19:                                               ; preds = %.noexc.i.i.i
  call void @llvm.lifetime.end.p0(i64 8, ptr nonnull %4) #24
  %20 = load ptr, ptr %5, align 8, !tbaa !140
  %21 = load ptr, ptr %20, align 8, !tbaa !11
  %22 = load ptr, ptr %6, align 8, !tbaa !84
  invoke void @_ZN11realclosure7manager3imp7dec_refEPNS_5valueE(ptr noundef nonnull align 8 dereferenceable(1497) %21, ptr noundef %22)
          to label %_ZN15_scoped_numeralIN11realclosure7managerEED2Ev.exit unwind label %23

23:                                               ; preds = %19
  %24 = landingpad { ptr, i32 }
          catch ptr null
  %25 = extractvalue { ptr, i32 } %24, 0
  call void @__clang_call_terminate(ptr %25) #25
  unreachable

_ZN15_scoped_numeralIN11realclosure7managerEED2Ev.exit: ; preds = %19
  %26 = icmp eq i32 %11, 0
  call void @llvm.lifetime.end.p0(i64 16, ptr nonnull %5) #24
  ret i1 %26

27:                                               ; preds = %3
  %28 = landingpad { ptr, i32 }
          cleanup
  br label %.body

.body:                                            ; preds = %17, %27
  %eh.lpad-body = phi { ptr, i32 } [ %28, %27 ], [ %18, %17 ]
  call void @_ZN15_scoped_numeralIN11realclosure7managerEED2Ev(ptr noundef nonnull align 8 dereferenceable(16) %5) #24
  call void @llvm.lifetime.end.p0(i64 16, ptr nonnull %5) #24
  resume { ptr, i32 } %eh.lpad-body
}